Archive member included to satisfy reference by file (symbol)

../obj/lpc11xx_classlib.a(ssp.cpp.o)
                              /Users/msmith/work/Mike/NXP/lpc11xx_classlib/test/obj///Users/msmith/work/Mike/NXP/lpc11xx_classlib/test/test.cpp.o (SSP::configure(unsigned int, unsigned int, unsigned int))
../obj/lpc11xx_classlib.a(timer.cpp.o)
                              /Users/msmith/work/Mike/NXP/lpc11xx_classlib/test/obj///Users/msmith/work/Mike/NXP/lpc11xx_classlib/test/test.cpp.o (Timebase::configure())
../obj/lpc11xx_classlib.a(vectors.c.o)
                              (_vectors)
../obj/lpc11xx_classlib.a(startup.cpp.o)
                              ../obj/lpc11xx_classlib.a(vectors.c.o) (_start)
../obj/lpc11xx_classlib.a(syscon.cpp.o)
                              ../obj/lpc11xx_classlib.a(startup.cpp.o) (Syscon::init_48MHz())
/usr/local/Cellar/gcc-arm-none-eabi/20171218/bin/../lib/gcc/arm-none-eabi/7.2.1/thumb/v6-m/libgcc.a(_udivsi3.o)
                              ../obj/lpc11xx_classlib.a(ssp.cpp.o) (__aeabi_uidiv)
/usr/local/Cellar/gcc-arm-none-eabi/20171218/bin/../lib/gcc/arm-none-eabi/7.2.1/thumb/v6-m/libgcc.a(_dvmd_tls.o)
                              /usr/local/Cellar/gcc-arm-none-eabi/20171218/bin/../lib/gcc/arm-none-eabi/7.2.1/thumb/v6-m/libgcc.a(_udivsi3.o) (__aeabi_idiv0)

Discarded input sections

 .group         0x0000000000000000        0x8 /Users/msmith/work/Mike/NXP/lpc11xx_classlib/test/obj///Users/msmith/work/Mike/NXP/lpc11xx_classlib/test/test.cpp.o
 .text          0x0000000000000000        0x0 /Users/msmith/work/Mike/NXP/lpc11xx_classlib/test/obj///Users/msmith/work/Mike/NXP/lpc11xx_classlib/test/test.cpp.o
 .data          0x0000000000000000        0x0 /Users/msmith/work/Mike/NXP/lpc11xx_classlib/test/obj///Users/msmith/work/Mike/NXP/lpc11xx_classlib/test/test.cpp.o
 .bss           0x0000000000000000        0x0 /Users/msmith/work/Mike/NXP/lpc11xx_classlib/test/obj///Users/msmith/work/Mike/NXP/lpc11xx_classlib/test/test.cpp.o
 .text._Z8callbackv
                0x0000000000000000        0x2 /Users/msmith/work/Mike/NXP/lpc11xx_classlib/test/obj///Users/msmith/work/Mike/NXP/lpc11xx_classlib/test/test.cpp.o
 .rodata        0x0000000000000000       0x85 /Users/msmith/work/Mike/NXP/lpc11xx_classlib/test/obj///Users/msmith/work/Mike/NXP/lpc11xx_classlib/test/test.cpp.o
 .text          0x0000000000000000        0x0 ../obj/lpc11xx_classlib.a(ssp.cpp.o)
 .data          0x0000000000000000        0x0 ../obj/lpc11xx_classlib.a(ssp.cpp.o)
 .bss           0x0000000000000000        0x0 ../obj/lpc11xx_classlib.a(ssp.cpp.o)
 .text._ZN3SSP8transferEPtS0_j
                0x0000000000000000       0x4c ../obj/lpc11xx_classlib.a(ssp.cpp.o)
 .group         0x0000000000000000        0x8 ../obj/lpc11xx_classlib.a(timer.cpp.o)
 .text          0x0000000000000000        0x0 ../obj/lpc11xx_classlib.a(timer.cpp.o)
 .data          0x0000000000000000        0x0 ../obj/lpc11xx_classlib.a(timer.cpp.o)
 .text._ZN5TimerC2Ej
                0x0000000000000000       0x58 ../obj/lpc11xx_classlib.a(timer.cpp.o)
 .text._ZN5Timer7handlerEj
                0x0000000000000000       0x28 ../obj/lpc11xx_classlib.a(timer.cpp.o)
 .text.CT16_0_IRQHandler
                0x0000000000000000        0xa ../obj/lpc11xx_classlib.a(timer.cpp.o)
 .text.CT16_1_IRQHandler
                0x0000000000000000        0xa ../obj/lpc11xx_classlib.a(timer.cpp.o)
 .text.CT32_0_IRQHandler
                0x0000000000000000        0xa ../obj/lpc11xx_classlib.a(timer.cpp.o)
 .text.CT32_1_IRQHandler
                0x0000000000000000        0xa ../obj/lpc11xx_classlib.a(timer.cpp.o)
 .text          0x0000000000000000        0x0 ../obj/lpc11xx_classlib.a(vectors.c.o)
 .data          0x0000000000000000        0x0 ../obj/lpc11xx_classlib.a(vectors.c.o)
 .bss           0x0000000000000000        0x0 ../obj/lpc11xx_classlib.a(vectors.c.o)
 .text          0x0000000000000000        0x0 ../obj/lpc11xx_classlib.a(startup.cpp.o)
 .data          0x0000000000000000        0x0 ../obj/lpc11xx_classlib.a(startup.cpp.o)
 .bss           0x0000000000000000        0x0 ../obj/lpc11xx_classlib.a(startup.cpp.o)
 .text          0x0000000000000000        0x0 ../obj/lpc11xx_classlib.a(syscon.cpp.o)
 .data          0x0000000000000000        0x0 ../obj/lpc11xx_classlib.a(syscon.cpp.o)
 .bss           0x0000000000000000        0x0 ../obj/lpc11xx_classlib.a(syscon.cpp.o)
 .data          0x0000000000000000        0x0 /usr/local/Cellar/gcc-arm-none-eabi/20171218/bin/../lib/gcc/arm-none-eabi/7.2.1/thumb/v6-m/libgcc.a(_udivsi3.o)
 .bss           0x0000000000000000        0x0 /usr/local/Cellar/gcc-arm-none-eabi/20171218/bin/../lib/gcc/arm-none-eabi/7.2.1/thumb/v6-m/libgcc.a(_udivsi3.o)
 .data          0x0000000000000000        0x0 /usr/local/Cellar/gcc-arm-none-eabi/20171218/bin/../lib/gcc/arm-none-eabi/7.2.1/thumb/v6-m/libgcc.a(_dvmd_tls.o)
 .bss           0x0000000000000000        0x0 /usr/local/Cellar/gcc-arm-none-eabi/20171218/bin/../lib/gcc/arm-none-eabi/7.2.1/thumb/v6-m/libgcc.a(_dvmd_tls.o)

Memory Configuration

Name             Origin             Length             Attributes
flash            0x0000000000000000 0x0000000000008000 xr
ram              0x0000000010000000 0x0000000000001000 xrw
*default*        0x0000000000000000 0xffffffffffffffff

Linker script and memory map

LOAD /Users/msmith/work/Mike/NXP/lpc11xx_classlib/test/obj///Users/msmith/work/Mike/NXP/lpc11xx_classlib/test/test.cpp.o
LOAD ../obj/lpc11xx_classlib.a
LOAD /usr/local/Cellar/gcc-arm-none-eabi/20171218/bin/../lib/gcc/arm-none-eabi/7.2.1/thumb/v6-m/libgcc.a
                0x0000000000000000                . = 0x0

.vectors        0x0000000000000000       0xc0
 *(.vectors)
 .vectors       0x0000000000000000       0xc0 ../obj/lpc11xx_classlib.a(vectors.c.o)
                0x0000000000000000                _vectors

.init_array     0x00000000000000c0        0x0
                0x00000000000000c0                PROVIDE (_init_array_start, .)
 *(SORT_BY_INIT_PRIORITY(.init_array.*))
 *(.init_array)
                0x00000000000000c0                PROVIDE (_init_array_end, .)

.text           0x00000000000000c0      0x450
 *(.text.startup.*)
 .text.startup.main
                0x00000000000000c0       0x58 /Users/msmith/work/Mike/NXP/lpc11xx_classlib/test/obj///Users/msmith/work/Mike/NXP/lpc11xx_classlib/test/test.cpp.o
                0x00000000000000c0                main
 *(.text)
 .text          0x0000000000000118      0x114 /usr/local/Cellar/gcc-arm-none-eabi/20171218/bin/../lib/gcc/arm-none-eabi/7.2.1/thumb/v6-m/libgcc.a(_udivsi3.o)
                0x0000000000000118                __udivsi3
                0x0000000000000118                __aeabi_uidiv
                0x0000000000000224                __aeabi_uidivmod
 .text          0x000000000000022c        0x4 /usr/local/Cellar/gcc-arm-none-eabi/20171218/bin/../lib/gcc/arm-none-eabi/7.2.1/thumb/v6-m/libgcc.a(_dvmd_tls.o)
                0x000000000000022c                __aeabi_ldiv0
                0x000000000000022c                __aeabi_idiv0
 *(.text.*)
 .text._ZN5TimerC2Ej
                0x0000000000000230       0x58 /Users/msmith/work/Mike/NXP/lpc11xx_classlib/test/obj///Users/msmith/work/Mike/NXP/lpc11xx_classlib/test/test.cpp.o
                0x0000000000000230                Timer::Timer(unsigned int)
                0x0000000000000230                Timer::Timer(unsigned int)
 .text._ZN3SSP9configureEjjj
                0x0000000000000288       0x78 ../obj/lpc11xx_classlib.a(ssp.cpp.o)
                0x0000000000000288                SSP::configure(unsigned int, unsigned int, unsigned int)
 .text._ZN3SSP8transferEPhS0_j
                0x0000000000000300       0x4c ../obj/lpc11xx_classlib.a(ssp.cpp.o)
                0x0000000000000300                SSP::transfer(unsigned char*, unsigned char*, unsigned int)
 .text._ZN5Timer6cancelEv
                0x000000000000034c       0x28 ../obj/lpc11xx_classlib.a(timer.cpp.o)
                0x000000000000034c                Timer::cancel()
 .text._ZN8Timebase9configureEv
                0x0000000000000374       0x40 ../obj/lpc11xx_classlib.a(timer.cpp.o)
                0x0000000000000374                Timebase::configure()
 .text._ZN8Timebase4timeEv
                0x00000000000003b4       0x50 ../obj/lpc11xx_classlib.a(timer.cpp.o)
                0x00000000000003b4                Timebase::time()
 .text._ZN8Timebase7handlerEj
                0x0000000000000404       0x14 ../obj/lpc11xx_classlib.a(timer.cpp.o)
                0x0000000000000404                Timebase::handler(unsigned int)
 .text._badhandler
                0x0000000000000418        0x2 ../obj/lpc11xx_classlib.a(vectors.c.o)
                0x0000000000000418                TIMER_32_1_Handler
                0x0000000000000418                WAKEUP7_Handler
                0x0000000000000418                HardFault_Handler
                0x0000000000000418                SysTick_Handler
                0x0000000000000418                PendSV_Handler
                0x0000000000000418                WAKEUP12_Handler
                0x0000000000000418                WAKEUP3_Handler
                0x0000000000000418                ADC_Handler
                0x0000000000000418                NonMaskableInt_Handler
                0x0000000000000418                BOD_Handler
                0x0000000000000418                WAKEUP5_Handler
                0x0000000000000418                EINT3_Handler
                0x0000000000000418                WDT_Handler
                0x0000000000000418                TIMER_16_1_Handler
                0x0000000000000418                WAKEUP9_Handler
                0x0000000000000418                WAKEUP1_Handler
                0x0000000000000418                WAKEUP4_Handler
                0x0000000000000418                I2C_Handler
                0x0000000000000418                TIMER_32_0_Handler
                0x0000000000000418                WAKEUP10_Handler
                0x0000000000000418                WAKEUP2_Handler
                0x0000000000000418                WAKEUP8_Handler
                0x0000000000000418                WAKEUP6_Handler
                0x0000000000000418                SSP0_Handler
                0x0000000000000418                WAKEUP11_Handler
                0x0000000000000418                EINT0_Handler
                0x0000000000000418                UART_Handler
                0x0000000000000418                WAKEUP0_Handler
                0x0000000000000418                EINT2_Handler
                0x0000000000000418                SSP1_Handler
                0x0000000000000418                EINT1_Handler
                0x0000000000000418                TIMER_16_0_Handler
                0x0000000000000418                SVCall_Handler
 *fill*         0x000000000000041a        0x2 
 .text._start   0x000000000000041c       0x74 ../obj/lpc11xx_classlib.a(startup.cpp.o)
                0x000000000000041c                _start
 .text._ZN6Syscon10init_48MHzEv
                0x0000000000000490       0x80 ../obj/lpc11xx_classlib.a(syscon.cpp.o)
                0x0000000000000490                Syscon::init_48MHz()
 *(.rodata)
 *(.rodata.*)
 *(.gcc*)

.glue_7         0x0000000000000510        0x0
 .glue_7        0x0000000000000510        0x0 linker stubs

.glue_7t        0x0000000000000510        0x0
 .glue_7t       0x0000000000000510        0x0 linker stubs

.vfp11_veneer   0x0000000000000510        0x0
 .vfp11_veneer  0x0000000000000510        0x0 linker stubs

.v4_bx          0x0000000000000510        0x0
 .v4_bx         0x0000000000000510        0x0 linker stubs

.iplt           0x0000000000000510        0x0
 .iplt          0x0000000000000510        0x0 /Users/msmith/work/Mike/NXP/lpc11xx_classlib/test/obj///Users/msmith/work/Mike/NXP/lpc11xx_classlib/test/test.cpp.o

.rel.dyn        0x0000000000000510        0x0
 .rel.iplt      0x0000000000000510        0x0 /Users/msmith/work/Mike/NXP/lpc11xx_classlib/test/obj///Users/msmith/work/Mike/NXP/lpc11xx_classlib/test/test.cpp.o
                0x0000000000000510                . = ALIGN (0x4)
                0x0000000000000510                PROVIDE (_data_rom, .)

.data           0x0000000010000000        0x0 load address 0x0000000000000510
                0x0000000010000000                PROVIDE (_data_start, .)
 *(.data)
                0x0000000010000000                . = ALIGN (0x4)
 *(.data.*)
                0x0000000010000000                . = ALIGN (0x4)
 *(.ramtext)
                0x0000000010000000                . = ALIGN (0x4)
                0x0000000010000000                PROVIDE (_data_end, .)

.igot.plt       0x0000000010000000        0x0 load address 0x0000000000000510
 .igot.plt      0x0000000010000000        0x0 /Users/msmith/work/Mike/NXP/lpc11xx_classlib/test/obj///Users/msmith/work/Mike/NXP/lpc11xx_classlib/test/test.cpp.o

.bss            0x0000000010000000       0x18 load address 0x0000000000000510
                0x0000000010000000                PROVIDE (_bss_start, .)
 *(.bss)
 .bss           0x0000000010000000       0x18 ../obj/lpc11xx_classlib.a(timer.cpp.o)
                0x0000000010000000                Timer::_callbacks
                0x0000000010000010                Timebase::_time
                0x0000000010000018                . = ALIGN (0x4)
 *(.bss.*)
                0x0000000010000018                . = ALIGN (0x4)
 *(COMMON)
                0x0000000010000018                . = ALIGN (0x4)
                0x0000000010000018                PROVIDE (_bss_end, .)
                0x0000000010000ff0                PROVIDE (_stacktop, ((ORIGIN (ram) + LENGTH (ram)) - 0x10))
OUTPUT(obj/test.elf elf32-littlearm)

.debug_info     0x0000000000000000     0x4c43
 .debug_info    0x0000000000000000     0x29cb /Users/msmith/work/Mike/NXP/lpc11xx_classlib/test/obj///Users/msmith/work/Mike/NXP/lpc11xx_classlib/test/test.cpp.o
 .debug_info    0x00000000000029cb      0xa59 ../obj/lpc11xx_classlib.a(ssp.cpp.o)
 .debug_info    0x0000000000003424      0xb81 ../obj/lpc11xx_classlib.a(timer.cpp.o)
 .debug_info    0x0000000000003fa5      0x1bc ../obj/lpc11xx_classlib.a(vectors.c.o)
 .debug_info    0x0000000000004161      0x270 ../obj/lpc11xx_classlib.a(startup.cpp.o)
 .debug_info    0x00000000000043d1      0x872 ../obj/lpc11xx_classlib.a(syscon.cpp.o)

.debug_abbrev   0x0000000000000000     0x12c4
 .debug_abbrev  0x0000000000000000      0x76b /Users/msmith/work/Mike/NXP/lpc11xx_classlib/test/obj///Users/msmith/work/Mike/NXP/lpc11xx_classlib/test/test.cpp.o
 .debug_abbrev  0x000000000000076b      0x2fe ../obj/lpc11xx_classlib.a(ssp.cpp.o)
 .debug_abbrev  0x0000000000000a69      0x494 ../obj/lpc11xx_classlib.a(timer.cpp.o)
 .debug_abbrev  0x0000000000000efd       0xbb ../obj/lpc11xx_classlib.a(vectors.c.o)
 .debug_abbrev  0x0000000000000fb8      0x171 ../obj/lpc11xx_classlib.a(startup.cpp.o)
 .debug_abbrev  0x0000000000001129      0x19b ../obj/lpc11xx_classlib.a(syscon.cpp.o)

.debug_loc      0x0000000000000000      0x79f
 .debug_loc     0x0000000000000000      0x1ba /Users/msmith/work/Mike/NXP/lpc11xx_classlib/test/obj///Users/msmith/work/Mike/NXP/lpc11xx_classlib/test/test.cpp.o
 .debug_loc     0x00000000000001ba      0x25d ../obj/lpc11xx_classlib.a(ssp.cpp.o)
 .debug_loc     0x0000000000000417      0x2de ../obj/lpc11xx_classlib.a(timer.cpp.o)
 .debug_loc     0x00000000000006f5       0xaa ../obj/lpc11xx_classlib.a(startup.cpp.o)

.debug_aranges  0x0000000000000000      0x128
 .debug_aranges
                0x0000000000000000       0x30 /Users/msmith/work/Mike/NXP/lpc11xx_classlib/test/obj///Users/msmith/work/Mike/NXP/lpc11xx_classlib/test/test.cpp.o
 .debug_aranges
                0x0000000000000030       0x30 ../obj/lpc11xx_classlib.a(ssp.cpp.o)
 .debug_aranges
                0x0000000000000060       0x68 ../obj/lpc11xx_classlib.a(timer.cpp.o)
 .debug_aranges
                0x00000000000000c8       0x20 ../obj/lpc11xx_classlib.a(vectors.c.o)
 .debug_aranges
                0x00000000000000e8       0x20 ../obj/lpc11xx_classlib.a(startup.cpp.o)
 .debug_aranges
                0x0000000000000108       0x20 ../obj/lpc11xx_classlib.a(syscon.cpp.o)

.debug_ranges   0x0000000000000000      0x1d8
 .debug_ranges  0x0000000000000000       0xb8 /Users/msmith/work/Mike/NXP/lpc11xx_classlib/test/obj///Users/msmith/work/Mike/NXP/lpc11xx_classlib/test/test.cpp.o
 .debug_ranges  0x00000000000000b8       0x68 ../obj/lpc11xx_classlib.a(ssp.cpp.o)
 .debug_ranges  0x0000000000000120       0x88 ../obj/lpc11xx_classlib.a(timer.cpp.o)
 .debug_ranges  0x00000000000001a8       0x10 ../obj/lpc11xx_classlib.a(vectors.c.o)
 .debug_ranges  0x00000000000001b8       0x10 ../obj/lpc11xx_classlib.a(startup.cpp.o)
 .debug_ranges  0x00000000000001c8       0x10 ../obj/lpc11xx_classlib.a(syscon.cpp.o)

.debug_line     0x0000000000000000      0xbd1
 .debug_line    0x0000000000000000      0x593 /Users/msmith/work/Mike/NXP/lpc11xx_classlib/test/obj///Users/msmith/work/Mike/NXP/lpc11xx_classlib/test/test.cpp.o
 .debug_line    0x0000000000000593      0x171 ../obj/lpc11xx_classlib.a(ssp.cpp.o)
 .debug_line    0x0000000000000704      0x251 ../obj/lpc11xx_classlib.a(timer.cpp.o)
 .debug_line    0x0000000000000955       0xbc ../obj/lpc11xx_classlib.a(vectors.c.o)
 .debug_line    0x0000000000000a11       0xd2 ../obj/lpc11xx_classlib.a(startup.cpp.o)
 .debug_line    0x0000000000000ae3       0xee ../obj/lpc11xx_classlib.a(syscon.cpp.o)

.debug_str      0x0000000000000000     0x3552
 .debug_str     0x0000000000000000     0x1e04 /Users/msmith/work/Mike/NXP/lpc11xx_classlib/test/obj///Users/msmith/work/Mike/NXP/lpc11xx_classlib/test/test.cpp.o
                                       0x1f5f (size before relaxing)
 .debug_str     0x0000000000001e04      0x635 ../obj/lpc11xx_classlib.a(ssp.cpp.o)
                                        0x9ca (size before relaxing)
 .debug_str     0x0000000000002439      0x554 ../obj/lpc11xx_classlib.a(timer.cpp.o)
                                        0x9b6 (size before relaxing)
 .debug_str     0x000000000000298d      0x2bd ../obj/lpc11xx_classlib.a(vectors.c.o)
                                        0x37b (size before relaxing)
 .debug_str     0x0000000000002c4a       0x88 ../obj/lpc11xx_classlib.a(startup.cpp.o)
                                        0x373 (size before relaxing)
 .debug_str     0x0000000000002cd2      0x880 ../obj/lpc11xx_classlib.a(syscon.cpp.o)
                                        0xde7 (size before relaxing)

.comment        0x0000000000000000       0x7e
 .comment       0x0000000000000000       0x7e /Users/msmith/work/Mike/NXP/lpc11xx_classlib/test/obj///Users/msmith/work/Mike/NXP/lpc11xx_classlib/test/test.cpp.o
                                         0x7f (size before relaxing)
 .comment       0x000000000000007e       0x7f ../obj/lpc11xx_classlib.a(ssp.cpp.o)
 .comment       0x000000000000007e       0x7f ../obj/lpc11xx_classlib.a(timer.cpp.o)
 .comment       0x000000000000007e       0x7f ../obj/lpc11xx_classlib.a(vectors.c.o)
 .comment       0x000000000000007e       0x7f ../obj/lpc11xx_classlib.a(startup.cpp.o)
 .comment       0x000000000000007e       0x7f ../obj/lpc11xx_classlib.a(syscon.cpp.o)

.ARM.attributes
                0x0000000000000000       0x32
 .ARM.attributes
                0x0000000000000000       0x32 /Users/msmith/work/Mike/NXP/lpc11xx_classlib/test/obj///Users/msmith/work/Mike/NXP/lpc11xx_classlib/test/test.cpp.o
 .ARM.attributes
                0x0000000000000032       0x32 ../obj/lpc11xx_classlib.a(ssp.cpp.o)
 .ARM.attributes
                0x0000000000000064       0x32 ../obj/lpc11xx_classlib.a(timer.cpp.o)
 .ARM.attributes
                0x0000000000000096       0x32 ../obj/lpc11xx_classlib.a(vectors.c.o)
 .ARM.attributes
                0x00000000000000c8       0x32 ../obj/lpc11xx_classlib.a(startup.cpp.o)
 .ARM.attributes
                0x00000000000000fa       0x32 ../obj/lpc11xx_classlib.a(syscon.cpp.o)
 .ARM.attributes
                0x000000000000012c       0x1e /usr/local/Cellar/gcc-arm-none-eabi/20171218/bin/../lib/gcc/arm-none-eabi/7.2.1/thumb/v6-m/libgcc.a(_udivsi3.o)
 .ARM.attributes
                0x000000000000014a       0x1e /usr/local/Cellar/gcc-arm-none-eabi/20171218/bin/../lib/gcc/arm-none-eabi/7.2.1/thumb/v6-m/libgcc.a(_dvmd_tls.o)

.debug_frame    0x0000000000000000      0x248
 .debug_frame   0x0000000000000000       0x50 /Users/msmith/work/Mike/NXP/lpc11xx_classlib/test/obj///Users/msmith/work/Mike/NXP/lpc11xx_classlib/test/test.cpp.o
 .debug_frame   0x0000000000000050       0x70 ../obj/lpc11xx_classlib.a(ssp.cpp.o)
 .debug_frame   0x00000000000000c0      0x108 ../obj/lpc11xx_classlib.a(timer.cpp.o)
 .debug_frame   0x00000000000001c8       0x20 ../obj/lpc11xx_classlib.a(vectors.c.o)
 .debug_frame   0x00000000000001e8       0x20 ../obj/lpc11xx_classlib.a(startup.cpp.o)
 .debug_frame   0x0000000000000208       0x20 ../obj/lpc11xx_classlib.a(syscon.cpp.o)
 .debug_frame   0x0000000000000228       0x20 /usr/local/Cellar/gcc-arm-none-eabi/20171218/bin/../lib/gcc/arm-none-eabi/7.2.1/thumb/v6-m/libgcc.a(_udivsi3.o)
